target datalayout = "e-m:e-p270:32:32-p271:32:32-p272:64:64-i64:64-i128:128-f80:128-n8:16:32:64-S128"
target triple = "x86_64-pc-linux-gnu"

%struct.pmix_pfexec_pipe_err_msg_t = type { i8, i32, i32, i32, i32 }
%struct.__va_list_tag = type { i32, i32, ptr, ptr }

; Function Attrs: noreturn nounwind uwtable
define internal void @send_error_show_help(i32 noundef %0, i32 noundef %1, ptr noundef %2, ptr noundef %3, ...) #10 {
  %5 = alloca i32, align 4
  %6 = alloca i32, align 4
  %7 = alloca ptr, align 8
  %8 = alloca ptr, align 8
  %9 = alloca [1 x %struct.__va_list_tag], align 16
  %10 = alloca %struct.pmix_pfexec_pipe_err_msg_t, align 4
  store i32 %0, ptr %5, align 4, !tbaa !55
  store i32 %1, ptr %6, align 4, !tbaa !55
  store ptr %2, ptr %7, align 8, !tbaa !128
  store ptr %3, ptr %8, align 8, !tbaa !128
  call void @llvm.lifetime.start.p0(i64 24, ptr %9) #14
  call void @llvm.lifetime.start.p0(i64 20, ptr %10) #14
  %11 = getelementptr inbounds nuw %struct.pmix_pfexec_pipe_err_msg_t, ptr %10, i32 0, i32 0
  store i8 1, ptr %11, align 4, !tbaa !137
  %12 = load i32, ptr %6, align 4, !tbaa !55
  %13 = getelementptr inbounds nuw %struct.pmix_pfexec_pipe_err_msg_t, ptr %10, i32 0, i32 1
  store i32 %12, ptr %13, align 4, !tbaa !138
  %14 = getelementptr inbounds [1 x %struct.__va_list_tag], ptr %9, i64 0, i64 0
  call void @llvm.va_start.p0(ptr %14)
  %15 = load i32, ptr %5, align 4, !tbaa !55
  %16 = load ptr, ptr %7, align 8, !tbaa !128
  %17 = load ptr, ptr %8, align 8, !tbaa !128
  %18 = getelementptr inbounds [1 x %struct.__va_list_tag], ptr %9, i64 0, i64 0
  %19 = call i32 @write_help_msg(i32 noundef %15, ptr noundef %10, ptr noundef %16, ptr noundef %17, ptr noundef %18)
  %20 = getelementptr inbounds [1 x %struct.__va_list_tag], ptr %9, i64 0, i64 0
  call void @llvm.va_end.p0(ptr %20)
  %21 = load i32, ptr %6, align 4, !tbaa !55
  call void @exit(i32 noundef %21) #17
  unreachable
}