; Function Attrs: cold noreturn nounwind uwtable
define internal void @send_error_show_help(i32 noundef %0, i32 %1, ptr readnone captures(none) %2, ptr noundef %3, ...) unnamed_addr #10 {
  %5 = alloca [1 x %struct.__va_list_tag], align 16
  %6 = alloca %struct.pmix_pfexec_pipe_err_msg_t, align 4
  call void @llvm.lifetime.start.p0(i64 24, ptr nonnull %5) #18
  call void @llvm.lifetime.start.p0(i64 20, ptr nonnull %6) #18
  store i8 1, ptr %6, align 4, !tbaa !107
  %7 = getelementptr inbounds nuw i8, ptr %6, i64 4
  store i32 1, ptr %7, align 4, !tbaa !118
  call void @llvm.va_start.p0(ptr nonnull %5)
  call fastcc void @write_help_msg(i32 noundef %0, ptr noundef %6, ptr noundef %3, ptr noundef %5)
  call void @llvm.va_end.p0(ptr nonnull %5)
  call void @exit(i32 noundef 1) #26
  unreachable
}